target datalayout = "e-m:e-p270:32:32-p271:32:32-p272:64:64-i64:64-i128:128-f80:128-n8:16:32:64-S128"
target triple = "x86_64-pc-linux-gnu"

%struct._DOT11DECRYPT_CONTEXT = type { ptr, [64 x %struct._DOT11DECRYPT_KEY_ITEM], i64, [32 x i8], i64 }
%struct._DOT11DECRYPT_KEY_ITEM = type { i8, %union.DOT11DECRYPT_KEY_ITEMDATA, %struct.DOT11DECRYPT_KEY_ITEMDATA_TK, %struct.DOT11DECRYPT_KEY_ITEMDATA_MSK, %struct.DOT11DECRYPT_KEY_ITEMDATA_PWD }
%union.DOT11DECRYPT_KEY_ITEMDATA = type { %struct.DOT11DECRYPT_KEY_ITEMDATA_WEP, [104 x i8] }
%struct.DOT11DECRYPT_KEY_ITEMDATA_WEP = type { [32 x i8], i64 }
%struct.DOT11DECRYPT_KEY_ITEMDATA_TK = type { [32 x i8], i8 }
%struct.DOT11DECRYPT_KEY_ITEMDATA_MSK = type { [128 x i8], i8 }
%struct.DOT11DECRYPT_KEY_ITEMDATA_PWD = type { [63 x i8], i64, [32 x i8], i64 }

; Function Attrs: alwaysinline nounwind
define internal ptr @memcpy.inline(ptr noalias %0, ptr noalias %1, i64 %2) #2 {
  %4 = alloca ptr, align 8
  %5 = alloca ptr, align 8
  %6 = alloca i64, align 8
  store ptr %0, ptr %4, align 8
  store ptr %1, ptr %5, align 8
  store i64 %2, ptr %6, align 8
  %7 = load ptr, ptr %4, align 8
  %8 = load ptr, ptr %5, align 8
  %9 = load i64, ptr %6, align 8
  %10 = load ptr, ptr %4, align 8
  %11 = call i64 @llvm.objectsize.i64.p0(ptr %10, i1 false, i1 true, i1 true)
  %12 = call ptr @__memcpy_chk(ptr noundef %7, ptr noundef %8, i64 noundef %9, i64 noundef %11) #16
  ret ptr %12
}

; Function Attrs: nounwind null_pointer_is_valid sspstrong uwtable
define hidden i32 @Dot11DecryptSetLastSSID(ptr noundef %0, ptr noundef %1, i64 noundef %2) #4 {
  %4 = alloca i32, align 4
  %5 = alloca ptr, align 8
  %6 = alloca ptr, align 8
  %7 = alloca i64, align 8
  store ptr %0, ptr %5, align 8
  store ptr %1, ptr %6, align 8
  store i64 %2, ptr %7, align 8
  %8 = load ptr, ptr %5, align 8
  %9 = icmp ne ptr %8, null
  br i1 %9, label %10, label %19

10:                                               ; preds = %3
  %11 = load ptr, ptr %6, align 8
  %12 = icmp ne ptr %11, null
  br i1 %12, label %13, label %19

13:                                               ; preds = %10
  %14 = load i64, ptr %7, align 8
  %15 = icmp ult i64 %14, 1
  br i1 %15, label %19, label %16

16:                                               ; preds = %13
  %17 = load i64, ptr %7, align 8
  %18 = icmp ugt i64 %17, 32
  br i1 %18, label %19, label %20

19:                                               ; preds = %16, %13, %10, %3
  store i32 1, ptr %4, align 4
  br label %30

20:                                               ; preds = %16
  %21 = load ptr, ptr %5, align 8
  %22 = getelementptr inbounds nuw %struct._DOT11DECRYPT_CONTEXT, ptr %21, i32 0, i32 3
  %23 = getelementptr inbounds [32 x i8], ptr %22, i64 0, i64 0
  %24 = load ptr, ptr %6, align 8
  %25 = load i64, ptr %7, align 8
  %26 = call ptr @memcpy.inline(ptr noundef %23, ptr noundef %24, i64 noundef %25) #16
  %27 = load i64, ptr %7, align 8
  %28 = load ptr, ptr %5, align 8
  %29 = getelementptr inbounds nuw %struct._DOT11DECRYPT_CONTEXT, ptr %28, i32 0, i32 4
  store i64 %27, ptr %29, align 8
  store i32 0, ptr %4, align 4
  br label %30

30:                                               ; preds = %20, %19
  %31 = load i32, ptr %4, align 4
  ret i32 %31
}