; Function Attrs: nofree nounwind null_pointer_is_valid sspstrong memory(argmem: readwrite) uwtable
define hidden range(i32 0, 2) i32 @Dot11DecryptSetLastSSID(ptr noundef %0, ptr noundef readonly captures(address_is_null) %1, i64 noundef %2) local_unnamed_addr #6 {
  %4 = icmp eq ptr %0, null
  %5 = icmp eq ptr %1, null
  %or.cond.not16 = or i1 %4, %5
  %6 = add i64 %2, -33
  %7 = icmp ult i64 %6, -32
  %or.cond5 = or i1 %or.cond.not16, %7
  br i1 %or.cond5, label %11, label %8

8:                                                ; preds = %3
  %9 = getelementptr inbounds nuw i8, ptr %0, i64 27664
  tail call void @llvm.memcpy.p0.p0.i64(ptr noundef nonnull align 1 %9, ptr noundef nonnull align 1 %1, i64 noundef %2, i1 noundef false) #15
  %10 = getelementptr inbounds nuw i8, ptr %0, i64 27696
  store i64 %2, ptr %10, align 8
  br label %11

11:                                               ; preds = %3, %8
  %.0 = phi i32 [ 0, %8 ], [ 1, %3 ]
  ret i32 %.0
}